; Function Attrs: mustprogress uwtable
define internal noundef i32 @"_ZNSt17_Function_handlerIFiRKNSt7__cxx1112basic_stringIcSt11char_traitsIcESaIcEEEEZN3gmx17EnumOptionStorage13initConverterEPNS9_26OptionValueConverterSimpleIiEEE3$_0E9_M_invokeERKSt9_Any_dataS7_"(ptr noundef nonnull readonly align 8 captures(none) dereferenceable(16) %0, ptr noundef nonnull align 8 dereferenceable(32) %1) #2 align 2 {
  %.val = load ptr, ptr %0, align 8, !tbaa !658
  %3 = getelementptr inbounds nuw i8, ptr %.val, i64 216
  %4 = tail call fastcc ptr @_ZN12_GLOBAL__N_113findEnumValueERKSt6vectorINSt7__cxx1112basic_stringIcSt11char_traitsIcESaIcEEESaIS6_EERKS6_(ptr noundef nonnull readonly align 8 dereferenceable(24) %3, ptr noundef nonnull align 8 dereferenceable(32) %1)
  %5 = load ptr, ptr %3, align 8, !tbaa !276
  %6 = ptrtoint ptr %4 to i64
  %7 = ptrtoint ptr %5 to i64
  %8 = sub i64 %6, %7
  %9 = lshr exact i64 %8, 5
  %10 = trunc i64 %9 to i32
  ret i32 %10
}